; Function Attrs: nounwind uwtable
define dso_local i64 @defGetInt64(ptr noundef readonly captures(none) %0) local_unnamed_addr #0 {
  %2 = getelementptr inbounds nuw i8, ptr %0, i64 24
  %3 = load ptr, ptr %2, align 8
  %4 = icmp eq ptr %3, null
  br i1 %4, label %5, label %11

5:                                                ; preds = %1
  %6 = tail call zeroext i1 @errstart_cold(i32 noundef 21, ptr noundef null) #6
  tail call void @llvm.assume(i1 %6)
  %7 = tail call i32 @errcode(i32 noundef 16801924) #7
  %8 = getelementptr inbounds nuw i8, ptr %0, i64 16
  %9 = load ptr, ptr %8, align 8
  %10 = tail call i32 (ptr, ...) @errmsg(ptr noundef nonnull @.str.7, ptr noundef %9) #7
  tail call void @errfinish(ptr noundef nonnull @.str.1, i32 noundef 179, ptr noundef nonnull @__func__.defGetInt64) #7
  unreachable

11:                                               ; preds = %1
  %12 = load i32, ptr %3, align 4
  switch i32 %12, label %22 [
    i32 464, label %13
    i32 465, label %17
  ]

13:                                               ; preds = %11
  %14 = getelementptr inbounds nuw i8, ptr %3, i64 4
  %15 = load i32, ptr %14, align 4
  %16 = sext i32 %15 to i64
  br label %28

17:                                               ; preds = %11
  %18 = getelementptr inbounds nuw i8, ptr %3, i64 8
  %19 = load ptr, ptr %18, align 8
  %20 = ptrtoint ptr %19 to i64
  %21 = tail call i64 @DirectFunctionCall1Coll(ptr noundef nonnull @int8in, i32 noundef 0, i64 noundef %20) #7
  br label %28

22:                                               ; preds = %11
  %23 = tail call zeroext i1 @errstart_cold(i32 noundef 21, ptr noundef null) #6
  tail call void @llvm.assume(i1 %23)
  %24 = tail call i32 @errcode(i32 noundef 16801924) #7
  %25 = getelementptr inbounds nuw i8, ptr %0, i64 16
  %26 = load ptr, ptr %25, align 8
  %27 = tail call i32 (ptr, ...) @errmsg(ptr noundef nonnull @.str.7, ptr noundef %26) #7
  tail call void @errfinish(ptr noundef nonnull @.str.1, i32 noundef 197, ptr noundef nonnull @__func__.defGetInt64) #7
  unreachable

28:                                               ; preds = %17, %13
  %.0 = phi i64 [ %21, %17 ], [ %16, %13 ]
  ret i64 %.0
}